target datalayout = "e-m:e-p270:32:32-p271:32:32-p272:64:64-i64:64-i128:128-f80:128-n8:16:32:64-S128"
target triple = "x86_64-pc-linux-gnu"

%struct.slurmdb_cluster_accounting_rec_t = type { i64, i64, i64, i64, i64, i64, i64, %struct.slurmdb_tres_rec_t }
%struct.slurmdb_tres_rec_t = type { i64, i32, i64, i32, ptr, ptr }

@.str.2 = private unnamed_addr constant [15 x i8] c"slurmdb_defs.c\00", align 1
@__func__.slurmdb_copy_tres_rec = private unnamed_addr constant [22 x i8] c"slurmdb_copy_tres_rec\00", align 1
@.str.181 = private unnamed_addr constant [36 x i8] c"slurmdb_copy_tres_rec returned NULL\00", align 1

; Function Attrs: nounwind uwtable
define dso_local ptr @slurmdb_copy_tres_rec(ptr noundef %0) #0 {
  %2 = alloca ptr, align 8
  %3 = alloca ptr, align 8
  %4 = alloca ptr, align 8
  %5 = alloca i32, align 4
  store ptr %0, ptr %3, align 8
  call void @llvm.lifetime.start.p0(i64 8, ptr %4) #10
  store ptr null, ptr %4, align 8
  %6 = load ptr, ptr %3, align 8
  %7 = icmp ne ptr %6, null
  br i1 %7, label %10, label %8

8:                                                ; preds = %1
  %9 = load ptr, ptr %4, align 8
  store ptr %9, ptr %2, align 8
  store i32 1, ptr %5, align 4
  br label %27

10:                                               ; preds = %1
  %11 = call ptr @slurm_xcalloc(i64 noundef 1, i64 noundef 48, i1 noundef zeroext false, i1 noundef zeroext false, ptr noundef @.str.2, i32 noundef 3705, ptr noundef @__func__.slurmdb_copy_tres_rec)
  store ptr %11, ptr %4, align 8
  %12 = load ptr, ptr %4, align 8
  %13 = load ptr, ptr %3, align 8
  call void @llvm.memcpy.p0.p0.i64(ptr align 8 %12, ptr align 8 %13, i64 48, i1 false)
  %14 = load ptr, ptr %3, align 8
  %15 = getelementptr inbounds nuw %struct.slurmdb_tres_rec_t, ptr %14, i32 0, i32 4
  %16 = load ptr, ptr %15, align 8
  %17 = call ptr @xstrdup(ptr noundef %16)
  %18 = load ptr, ptr %4, align 8
  %19 = getelementptr inbounds nuw %struct.slurmdb_tres_rec_t, ptr %18, i32 0, i32 4
  store ptr %17, ptr %19, align 8
  %20 = load ptr, ptr %3, align 8
  %21 = getelementptr inbounds nuw %struct.slurmdb_tres_rec_t, ptr %20, i32 0, i32 5
  %22 = load ptr, ptr %21, align 8
  %23 = call ptr @xstrdup(ptr noundef %22)
  %24 = load ptr, ptr %4, align 8
  %25 = getelementptr inbounds nuw %struct.slurmdb_tres_rec_t, ptr %24, i32 0, i32 5
  store ptr %23, ptr %25, align 8
  %26 = load ptr, ptr %4, align 8
  store ptr %26, ptr %2, align 8
  store i32 1, ptr %5, align 4
  br label %27

27:                                               ; preds = %10, %8
  call void @llvm.lifetime.end.p0(i64 8, ptr %4) #10
  %28 = load ptr, ptr %2, align 8
  ret ptr %28
}

; Function Attrs: nounwind uwtable
define dso_local i32 @slurmdb_add_cluster_accounting_to_tres_list(ptr noundef %0, ptr noundef %1) #0 {
  %3 = alloca i32, align 4
  %4 = alloca ptr, align 8
  %5 = alloca ptr, align 8
  %6 = alloca ptr, align 8
  %7 = alloca i32, align 4
  store ptr %0, ptr %4, align 8
  store ptr %1, ptr %5, align 8
  call void @llvm.lifetime.start.p0(i64 8, ptr %6) #10
  store ptr null, ptr %6, align 8
  %8 = load ptr, ptr %5, align 8
  %9 = load ptr, ptr %8, align 8
  %10 = icmp ne ptr %9, null
  br i1 %10, label %14, label %11

11:                                               ; preds = %2
  %12 = call ptr @list_create(ptr noundef @slurmdb_destroy_tres_rec)
  %13 = load ptr, ptr %5, align 8
  store ptr %12, ptr %13, align 8
  br label %21

14:                                               ; preds = %2
  %15 = load ptr, ptr %5, align 8
  %16 = load ptr, ptr %15, align 8
  %17 = load ptr, ptr %4, align 8
  %18 = getelementptr inbounds nuw %struct.slurmdb_cluster_accounting_rec_t, ptr %17, i32 0, i32 7
  %19 = getelementptr inbounds nuw %struct.slurmdb_tres_rec_t, ptr %18, i32 0, i32 3
  %20 = call ptr @list_find_first(ptr noundef %16, ptr noundef @slurmdb_find_tres_in_list, ptr noundef %19)
  store ptr %20, ptr %6, align 8
  br label %21

21:                                               ; preds = %14, %11
  %22 = load ptr, ptr %6, align 8
  %23 = icmp ne ptr %22, null
  br i1 %23, label %36, label %24

24:                                               ; preds = %21
  %25 = load ptr, ptr %4, align 8
  %26 = getelementptr inbounds nuw %struct.slurmdb_cluster_accounting_rec_t, ptr %25, i32 0, i32 7
  %27 = call ptr @slurmdb_copy_tres_rec(ptr noundef %26)
  store ptr %27, ptr %6, align 8
  %28 = load ptr, ptr %6, align 8
  %29 = icmp ne ptr %28, null
  br i1 %29, label %32, label %30

30:                                               ; preds = %24
  %31 = call i32 (ptr, ...) @error(ptr noundef @.str.181)
  store i32 -1, ptr %3, align 4
  store i32 1, ptr %7, align 4
  br label %72

32:                                               ; preds = %24
  %33 = load ptr, ptr %5, align 8
  %34 = load ptr, ptr %33, align 8
  %35 = load ptr, ptr %6, align 8
  call void @list_push(ptr noundef %34, ptr noundef %35)
  br label %36

36:                                               ; preds = %32, %21
  %37 = load ptr, ptr %4, align 8
  %38 = getelementptr inbounds nuw %struct.slurmdb_cluster_accounting_rec_t, ptr %37, i32 0, i32 0
  %39 = load i64, ptr %38, align 8
  %40 = load ptr, ptr %4, align 8
  %41 = getelementptr inbounds nuw %struct.slurmdb_cluster_accounting_rec_t, ptr %40, i32 0, i32 1
  %42 = load i64, ptr %41, align 8
  %43 = add i64 %39, %42
  %44 = load ptr, ptr %4, align 8
  %45 = getelementptr inbounds nuw %struct.slurmdb_cluster_accounting_rec_t, ptr %44, i32 0, i32 2
  %46 = load i64, ptr %45, align 8
  %47 = add i64 %43, %46
  %48 = load ptr, ptr %4, align 8
  %49 = getelementptr inbounds nuw %struct.slurmdb_cluster_accounting_rec_t, ptr %48, i32 0, i32 6
  %50 = load i64, ptr %49, align 8
  %51 = add i64 %47, %50
  %52 = load ptr, ptr %4, align 8
  %53 = getelementptr inbounds nuw %struct.slurmdb_cluster_accounting_rec_t, ptr %52, i32 0, i32 4
  %54 = load i64, ptr %53, align 8
  %55 = add i64 %51, %54
  %56 = load ptr, ptr %6, align 8
  %57 = getelementptr inbounds nuw %struct.slurmdb_tres_rec_t, ptr %56, i32 0, i32 0
  %58 = load i64, ptr %57, align 8
  %59 = add i64 %58, %55
  store i64 %59, ptr %57, align 8
  %60 = load ptr, ptr %4, align 8
  %61 = getelementptr inbounds nuw %struct.slurmdb_cluster_accounting_rec_t, ptr %60, i32 0, i32 7
  %62 = getelementptr inbounds nuw %struct.slurmdb_tres_rec_t, ptr %61, i32 0, i32 2
  %63 = load i64, ptr %62, align 8
  %64 = load ptr, ptr %6, align 8
  %65 = getelementptr inbounds nuw %struct.slurmdb_tres_rec_t, ptr %64, i32 0, i32 2
  %66 = load i64, ptr %65, align 8
  %67 = add i64 %66, %63
  store i64 %67, ptr %65, align 8
  %68 = load ptr, ptr %6, align 8
  %69 = getelementptr inbounds nuw %struct.slurmdb_tres_rec_t, ptr %68, i32 0, i32 1
  %70 = load i32, ptr %69, align 8
  %71 = add i32 %70, 1
  store i32 %71, ptr %69, align 8
  store i32 0, ptr %3, align 4
  store i32 1, ptr %7, align 4
  br label %72

72:                                               ; preds = %36, %30
  call void @llvm.lifetime.end.p0(i64 8, ptr %6) #10
  %73 = load i32, ptr %3, align 4
  ret i32 %73
}