; Function Attrs: nounwind uwtable
define dso_local noundef range(i32 -1, 1) i32 @slurmdb_add_cluster_accounting_to_tres_list(ptr noundef %0, ptr noundef captures(none) %1) local_unnamed_addr #0 {
  %3 = load ptr, ptr %1, align 8
  %.not = icmp eq ptr %3, null
  br i1 %.not, label %.thread, label %5

.thread:                                          ; preds = %2
  %4 = tail call ptr @list_create(ptr noundef nonnull @slurmdb_destroy_tres_rec) #19
  store ptr %4, ptr %1, align 8
  br label %8

5:                                                ; preds = %2
  %6 = getelementptr inbounds nuw i8, ptr %0, i64 80
  %7 = tail call ptr @list_find_first(ptr noundef nonnull %3, ptr noundef nonnull @slurmdb_find_tres_in_list, ptr noundef nonnull %6) #19
  %.not21 = icmp eq ptr %7, null
  br i1 %.not21, label %8, label %20

8:                                                ; preds = %5, %.thread
  %9 = getelementptr inbounds nuw i8, ptr %0, i64 56
  %10 = tail call ptr @slurm_xcalloc(i64 noundef 1, i64 noundef 48, i1 noundef zeroext false, i1 noundef zeroext false, ptr noundef nonnull @.str.2, i32 noundef 3705, ptr noundef nonnull @__func__.slurmdb_copy_tres_rec) #19
  tail call void @llvm.memcpy.p0.p0.i64(ptr noundef nonnull align 8 dereferenceable(48) %10, ptr noundef nonnull readonly align 8 dereferenceable(48) %9, i64 48, i1 false)
  %11 = getelementptr inbounds nuw i8, ptr %0, i64 88
  %12 = load ptr, ptr %11, align 8
  %13 = tail call ptr @xstrdup(ptr noundef %12) #19
  %14 = getelementptr inbounds nuw i8, ptr %10, i64 32
  store ptr %13, ptr %14, align 8
  %15 = getelementptr inbounds nuw i8, ptr %0, i64 96
  %16 = load ptr, ptr %15, align 8
  %17 = tail call ptr @xstrdup(ptr noundef %16) #19
  %18 = getelementptr inbounds nuw i8, ptr %10, i64 40
  store ptr %17, ptr %18, align 8
  %19 = load ptr, ptr %1, align 8
  tail call void @list_push(ptr noundef %19, ptr noundef nonnull %10) #19
  br label %20

20:                                               ; preds = %5, %8
  %.1 = phi ptr [ %7, %5 ], [ %10, %8 ]
  %21 = load i64, ptr %0, align 8
  %22 = getelementptr inbounds nuw i8, ptr %0, i64 8
  %23 = load i64, ptr %22, align 8
  %24 = add i64 %23, %21
  %25 = getelementptr inbounds nuw i8, ptr %0, i64 16
  %26 = load i64, ptr %25, align 8
  %27 = add i64 %24, %26
  %28 = getelementptr inbounds nuw i8, ptr %0, i64 48
  %29 = load i64, ptr %28, align 8
  %30 = add i64 %27, %29
  %31 = getelementptr inbounds nuw i8, ptr %0, i64 32
  %32 = load i64, ptr %31, align 8
  %33 = add i64 %30, %32
  %34 = load i64, ptr %.1, align 8
  %35 = add i64 %33, %34
  store i64 %35, ptr %.1, align 8
  %36 = getelementptr inbounds nuw i8, ptr %0, i64 72
  %37 = load i64, ptr %36, align 8
  %38 = getelementptr inbounds nuw i8, ptr %.1, i64 16
  %39 = load i64, ptr %38, align 8
  %40 = add i64 %39, %37
  store i64 %40, ptr %38, align 8
  %41 = getelementptr inbounds nuw i8, ptr %.1, i64 8
  %42 = load i32, ptr %41, align 8
  %43 = add i32 %42, 1
  store i32 %43, ptr %41, align 8
  ret i32 0
}